target datalayout = "e-m:e-p270:32:32-p271:32:32-p272:64:64-i64:64-i128:128-f80:128-n8:16:32:64-S128"
target triple = "x86_64-unknown-linux-gnu"

%"class.facebook::velox::common::hll::SparseHll" = type <{ %"class.std::vector", i32, [4 x i8] }>
%"class.std::vector" = type { %"struct.std::_Vector_base" }
%"struct.std::_Vector_base" = type { %"struct.std::_Vector_base<unsigned int, facebook::velox::StlAllocator<unsigned int>>::_Vector_impl" }
%"struct.std::_Vector_base<unsigned int, facebook::velox::StlAllocator<unsigned int>>::_Vector_impl" = type { %"struct.facebook::velox::StlAllocator", %"struct.std::_Vector_base<unsigned int, facebook::velox::StlAllocator<unsigned int>>::_Vector_impl_data" }
%"struct.facebook::velox::StlAllocator" = type { ptr }
%"struct.std::_Vector_base<unsigned int, facebook::velox::StlAllocator<unsigned int>>::_Vector_impl_data" = type { ptr, ptr, ptr }

; Function Attrs: mustprogress nounwind uwtable
define linkonce_odr noundef double @_ZN8facebook5velox6common3hll14linearCountingEii(i32 noundef %zeroBuckets, i32 noundef %totalBuckets) #1 comdat {
entry:
  %zeroBuckets.addr = alloca i32, align 4
  %totalBuckets.addr = alloca i32, align 4
  store i32 %zeroBuckets, ptr %zeroBuckets.addr, align 4
  store i32 %totalBuckets, ptr %totalBuckets.addr, align 4
  %0 = load i32, ptr %totalBuckets.addr, align 4
  %conv = sitofp i32 %0 to double
  %1 = load i32, ptr %totalBuckets.addr, align 4
  %conv1 = sitofp i32 %1 to double
  %mul = fmul double %conv1, 1.000000e+00
  %2 = load i32, ptr %zeroBuckets.addr, align 4
  %conv2 = sitofp i32 %2 to double
  %div = fdiv double %mul, %conv2
  %call = call double @log(double noundef %div) #11
  %mul3 = fmul double %conv, %call
  ret double %mul3
}

; Function Attrs: mustprogress nounwind uwtable
define linkonce_odr noundef i64 @_ZNKSt6vectorIjN8facebook5velox12StlAllocatorIjEEE4sizeEv(ptr noundef nonnull align 8 dereferenceable(32) %this) #1 comdat align 2 {
entry:
  %this.addr = alloca ptr, align 8
  store ptr %this, ptr %this.addr, align 8
  %this1 = load ptr, ptr %this.addr, align 8
  %_M_impl = getelementptr inbounds %"struct.std::_Vector_base", ptr %this1, i32 0, i32 0
  %add.ptr = getelementptr inbounds i8, ptr %_M_impl, i64 8
  %_M_finish = getelementptr inbounds %"struct.std::_Vector_base<unsigned int, facebook::velox::StlAllocator<unsigned int>>::_Vector_impl_data", ptr %add.ptr, i32 0, i32 1
  %0 = load ptr, ptr %_M_finish, align 8
  %_M_impl2 = getelementptr inbounds %"struct.std::_Vector_base", ptr %this1, i32 0, i32 0
  %add.ptr3 = getelementptr inbounds i8, ptr %_M_impl2, i64 8
  %_M_start = getelementptr inbounds %"struct.std::_Vector_base<unsigned int, facebook::velox::StlAllocator<unsigned int>>::_Vector_impl_data", ptr %add.ptr3, i32 0, i32 0
  %1 = load ptr, ptr %_M_start, align 8
  %sub.ptr.lhs.cast = ptrtoint ptr %0 to i64
  %sub.ptr.rhs.cast = ptrtoint ptr %1 to i64
  %sub.ptr.sub = sub i64 %sub.ptr.lhs.cast, %sub.ptr.rhs.cast
  %sub.ptr.div = sdiv exact i64 %sub.ptr.sub, 4
  ret i64 %sub.ptr.div
}

; Function Attrs: mustprogress uwtable
define noundef i64 @_ZNK8facebook5velox6common3hll9SparseHll11cardinalityEv(ptr noundef nonnull align 8 dereferenceable(36) %this) #0 align 2 {
entry:
  %this.addr = alloca ptr, align 8
  %zeroBuckets = alloca i32, align 4
  store ptr %this, ptr %this.addr, align 8
  %this1 = load ptr, ptr %this.addr, align 8
  %entries_ = getelementptr inbounds %"class.facebook::velox::common::hll::SparseHll", ptr %this1, i32 0, i32 0
  %call = call noundef i64 @_ZNKSt6vectorIjN8facebook5velox12StlAllocatorIjEEE4sizeEv(ptr noundef nonnull align 8 dereferenceable(32) %entries_) #11
  %sub = sub i64 67108864, %call
  %conv = trunc i64 %sub to i32
  store i32 %conv, ptr %zeroBuckets, align 4
  %0 = load i32, ptr %zeroBuckets, align 4
  %call2 = call noundef double @_ZN8facebook5velox6common3hll14linearCountingEii(i32 noundef %0, i32 noundef 67108864)
  %1 = call double @llvm.round.f64(double %call2)
  %conv3 = fptosi double %1 to i64
  ret i64 %conv3
}