; Function Attrs: mustprogress nofree nounwind willreturn memory(write, argmem: readwrite) uwtable
define noundef i64 @_ZNK8facebook5velox6common3hll9SparseHll11cardinalityEv(ptr noundef nonnull readonly align 8 captures(none) dereferenceable(36) %this) local_unnamed_addr #1 align 2 {
entry:
  %add.ptr.i = getelementptr inbounds nuw i8, ptr %this, i64 8
  %_M_finish.i = getelementptr inbounds nuw i8, ptr %this, i64 16
  %0 = load ptr, ptr %_M_finish.i, align 8
  %1 = load ptr, ptr %add.ptr.i, align 8
  %sub.ptr.lhs.cast.i = ptrtoint ptr %0 to i64
  %sub.ptr.rhs.cast.i = ptrtoint ptr %1 to i64
  %sub.ptr.sub.i = sub i64 %sub.ptr.lhs.cast.i, %sub.ptr.rhs.cast.i
  %sub.ptr.div.i = lshr exact i64 %sub.ptr.sub.i, 2
  %2 = trunc i64 %sub.ptr.div.i to i32
  %conv = sub i32 67108864, %2
  %conv2.i = sitofp i32 %conv to double
  %div.i = fdiv double 0x4190000000000000, %conv2.i
  %call.i = tail call double @log(double noundef %div.i) #22
  %mul3.i = fmul double %call.i, 0x4190000000000000
  %3 = tail call double @llvm.round.f64(double %mul3.i)
  %conv3 = fptosi double %3 to i64
  ret i64 %conv3
}